target datalayout = "e-m:e-p270:32:32-p271:32:32-p272:64:64-i64:64-i128:128-f80:128-n8:16:32:64-S128"
target triple = "x86_64-pc-linux-gnu"

%struct.TValue = type { %union.Value, i8 }
%union.Value = type { ptr }

@.str.4 = private unnamed_addr constant [12 x i8] c"concatenate\00", align 1

; Function Attrs: noreturn nounwind uwtable
define hidden void @luaG_concaterror(ptr noundef %0, ptr noundef %1, ptr noundef %2) #5 {
  %4 = alloca ptr, align 8
  %5 = alloca ptr, align 8
  %6 = alloca ptr, align 8
  store ptr %0, ptr %4, align 8, !tbaa !30
  store ptr %1, ptr %5, align 8, !tbaa !64
  store ptr %2, ptr %6, align 8, !tbaa !64
  %7 = load ptr, ptr %5, align 8, !tbaa !64
  %8 = getelementptr inbounds nuw %struct.TValue, ptr %7, i32 0, i32 1
  %9 = load i8, ptr %8, align 8, !tbaa !66
  %10 = zext i8 %9 to i32
  %11 = and i32 %10, 15
  %12 = icmp eq i32 %11, 4
  br i1 %12, label %20, label %13

13:                                               ; preds = %3
  %14 = load ptr, ptr %5, align 8, !tbaa !64
  %15 = getelementptr inbounds nuw %struct.TValue, ptr %14, i32 0, i32 1
  %16 = load i8, ptr %15, align 8, !tbaa !66
  %17 = zext i8 %16 to i32
  %18 = and i32 %17, 15
  %19 = icmp eq i32 %18, 3
  br i1 %19, label %20, label %22

20:                                               ; preds = %13, %3
  %21 = load ptr, ptr %6, align 8, !tbaa !64
  store ptr %21, ptr %5, align 8, !tbaa !64
  br label %22

22:                                               ; preds = %20, %13
  %23 = load ptr, ptr %4, align 8, !tbaa !30
  %24 = load ptr, ptr %5, align 8, !tbaa !64
  call void @luaG_typeerror(ptr noundef %23, ptr noundef %24, ptr noundef @.str.4) #10
  unreachable
}