; Function Attrs: noreturn nounwind uwtable
define hidden void @luaG_concaterror(ptr noundef %0, ptr noundef %1, ptr noundef %2) local_unnamed_addr #9 {
  %4 = getelementptr inbounds nuw i8, ptr %1, i64 8
  %5 = load i8, ptr %4, align 8, !tbaa !53
  %6 = and i8 %5, 15
  %.off = add nsw i8 %6, -3
  %switch = icmp ult i8 %.off, 2
  %spec.select = select i1 %switch, ptr %2, ptr %1
  tail call void @luaG_typeerror(ptr noundef %0, ptr noundef %spec.select, ptr noundef nonnull @.str.4) #15
  unreachable
}